target datalayout = "e-m:e-p270:32:32-p271:32:32-p272:64:64-i64:64-i128:128-f80:128-n8:16:32:64-S128"
target triple = "x86_64-pc-linux-gnu"

%"class.testing::internal::linked_ptr_internal" = type { ptr }
%"class.testing::internal::ParamGenerator.51" = type { %"class.testing::internal::linked_ptr.52" }
%"class.testing::internal::linked_ptr.52" = type { ptr, %"class.testing::internal::linked_ptr_internal" }
%"class.testing::internal::CartesianProductHolder2" = type <{ %"class.testing::internal::ValueArray2.114", %"class.testing::internal::ValueArray3", [4 x i8] }>
%"class.testing::internal::ValueArray2.114" = type { ptr, ptr }
%"class.testing::internal::ValueArray3" = type { i32, i32, i32 }

@.str.52 = private unnamed_addr constant [17 x i8] c"stitching/a1.png\00", align 1
@.str.53 = private unnamed_addr constant [19 x i8] c"cv/shared/pic5.png\00", align 1

; Function Attrs: mustprogress nounwind uwtable
define linkonce_odr hidden void @_ZN7testing8internal11ValueArray3IiiiEC2ERKS2_(ptr noundef nonnull align 4 dereferenceable(12) %0, ptr noundef nonnull align 4 dereferenceable(12) %1) unnamed_addr #4 comdat align 2 {
  %3 = alloca ptr, align 8
  %4 = alloca ptr, align 8
  store ptr %0, ptr %3, align 8
  store ptr %1, ptr %4, align 8
  %5 = load ptr, ptr %3, align 8
  %6 = getelementptr inbounds %"class.testing::internal::ValueArray3", ptr %5, i32 0, i32 0
  %7 = load ptr, ptr %4, align 8
  %8 = getelementptr inbounds %"class.testing::internal::ValueArray3", ptr %7, i32 0, i32 0
  %9 = load i32, ptr %8, align 4
  store i32 %9, ptr %6, align 4
  %10 = getelementptr inbounds %"class.testing::internal::ValueArray3", ptr %5, i32 0, i32 1
  %11 = load ptr, ptr %4, align 8
  %12 = getelementptr inbounds %"class.testing::internal::ValueArray3", ptr %11, i32 0, i32 1
  %13 = load i32, ptr %12, align 4
  store i32 %13, ptr %10, align 4
  %14 = getelementptr inbounds %"class.testing::internal::ValueArray3", ptr %5, i32 0, i32 2
  %15 = load ptr, ptr %4, align 8
  %16 = getelementptr inbounds %"class.testing::internal::ValueArray3", ptr %15, i32 0, i32 2
  %17 = load i32, ptr %16, align 4
  store i32 %17, ptr %14, align 4
  ret void
}

; Function Attrs: mustprogress nounwind uwtable
define linkonce_odr hidden void @_ZN7testing8internal11ValueArray2IPKcS3_EC2ERKS4_(ptr noundef nonnull align 8 dereferenceable(16) %0, ptr noundef nonnull align 8 dereferenceable(16) %1) unnamed_addr #4 comdat align 2 {
  %3 = alloca ptr, align 8
  %4 = alloca ptr, align 8
  store ptr %0, ptr %3, align 8
  store ptr %1, ptr %4, align 8
  %5 = load ptr, ptr %3, align 8
  %6 = getelementptr inbounds %"class.testing::internal::ValueArray2.114", ptr %5, i32 0, i32 0
  %7 = load ptr, ptr %4, align 8
  %8 = getelementptr inbounds %"class.testing::internal::ValueArray2.114", ptr %7, i32 0, i32 0
  %9 = load ptr, ptr %8, align 8
  store ptr %9, ptr %6, align 8
  %10 = getelementptr inbounds %"class.testing::internal::ValueArray2.114", ptr %5, i32 0, i32 1
  %11 = load ptr, ptr %4, align 8
  %12 = getelementptr inbounds %"class.testing::internal::ValueArray2.114", ptr %11, i32 0, i32 1
  %13 = load ptr, ptr %12, align 8
  store ptr %13, ptr %10, align 8
  ret void
}

; Function Attrs: mustprogress uwtable
define linkonce_odr hidden void @_ZN7testing8internal23CartesianProductHolder2INS0_11ValueArray2IPKcS4_EENS0_11ValueArray3IiiiEEEC2ERKS5_RKS7_(ptr noundef nonnull align 8 dereferenceable(28) %0, ptr noundef nonnull align 8 dereferenceable(16) %1, ptr noundef nonnull align 4 dereferenceable(12) %2) unnamed_addr #5 comdat align 2 {
  %4 = alloca ptr, align 8
  %5 = alloca ptr, align 8
  %6 = alloca ptr, align 8
  store ptr %0, ptr %4, align 8
  store ptr %1, ptr %5, align 8
  store ptr %2, ptr %6, align 8
  %7 = load ptr, ptr %4, align 8
  %8 = getelementptr inbounds %"class.testing::internal::CartesianProductHolder2", ptr %7, i32 0, i32 0
  %9 = load ptr, ptr %5, align 8
  call void @_ZN7testing8internal11ValueArray2IPKcS3_EC2ERKS4_(ptr noundef nonnull align 8 dereferenceable(16) %8, ptr noundef nonnull align 8 dereferenceable(16) %9)
  %10 = getelementptr inbounds %"class.testing::internal::CartesianProductHolder2", ptr %7, i32 0, i32 1
  %11 = load ptr, ptr %6, align 8
  call void @_ZN7testing8internal11ValueArray3IiiiEC2ERKS2_(ptr noundef nonnull align 4 dereferenceable(12) %10, ptr noundef nonnull align 4 dereferenceable(12) %11)
  ret void
}

; Function Attrs: mustprogress nounwind uwtable
define linkonce_odr hidden void @_ZN7testing8internal11ValueArray3IiiiEC2Eiii(ptr noundef nonnull align 4 dereferenceable(12) %0, i32 noundef %1, i32 noundef %2, i32 noundef %3) unnamed_addr #4 comdat align 2 {
  %5 = alloca ptr, align 8
  %6 = alloca i32, align 4
  %7 = alloca i32, align 4
  %8 = alloca i32, align 4
  store ptr %0, ptr %5, align 8
  store i32 %1, ptr %6, align 4
  store i32 %2, ptr %7, align 4
  store i32 %3, ptr %8, align 4
  %9 = load ptr, ptr %5, align 8
  %10 = getelementptr inbounds %"class.testing::internal::ValueArray3", ptr %9, i32 0, i32 0
  %11 = load i32, ptr %6, align 4
  store i32 %11, ptr %10, align 4
  %12 = getelementptr inbounds %"class.testing::internal::ValueArray3", ptr %9, i32 0, i32 1
  %13 = load i32, ptr %7, align 4
  store i32 %13, ptr %12, align 4
  %14 = getelementptr inbounds %"class.testing::internal::ValueArray3", ptr %9, i32 0, i32 2
  %15 = load i32, ptr %8, align 4
  store i32 %15, ptr %14, align 4
  ret void
}

; Function Attrs: mustprogress nounwind uwtable
define linkonce_odr hidden void @_ZN7testing8internal11ValueArray2IPKcS3_EC2ES3_S3_(ptr noundef nonnull align 8 dereferenceable(16) %0, ptr noundef %1, ptr noundef %2) unnamed_addr #4 comdat align 2 {
  %4 = alloca ptr, align 8
  %5 = alloca ptr, align 8
  %6 = alloca ptr, align 8
  store ptr %0, ptr %4, align 8
  store ptr %1, ptr %5, align 8
  store ptr %2, ptr %6, align 8
  %7 = load ptr, ptr %4, align 8
  %8 = getelementptr inbounds %"class.testing::internal::ValueArray2.114", ptr %7, i32 0, i32 0
  %9 = load ptr, ptr %5, align 8
  store ptr %9, ptr %8, align 8
  %10 = getelementptr inbounds %"class.testing::internal::ValueArray2.114", ptr %7, i32 0, i32 1
  %11 = load ptr, ptr %6, align 8
  store ptr %11, ptr %10, align 8
  ret void
}

; Function Attrs: mustprogress uwtable
define linkonce_odr hidden void @_ZN7testing7CombineINS_8internal11ValueArray2IPKcS4_EENS1_11ValueArray3IiiiEEEENS1_23CartesianProductHolder2IT_T0_EERKS9_RKSA_(ptr dead_on_unwind noalias writable sret(%"class.testing::internal::CartesianProductHolder2") align 8 %0, ptr noundef nonnull align 8 dereferenceable(16) %1, ptr noundef nonnull align 4 dereferenceable(12) %2) #5 comdat {
  %4 = alloca ptr, align 8
  %5 = alloca ptr, align 8
  %6 = alloca ptr, align 8
  store ptr %0, ptr %4, align 8
  store ptr %1, ptr %5, align 8
  store ptr %2, ptr %6, align 8
  %7 = load ptr, ptr %5, align 8
  %8 = load ptr, ptr %6, align 8
  call void @_ZN7testing8internal23CartesianProductHolder2INS0_11ValueArray2IPKcS4_EENS0_11ValueArray3IiiiEEEC2ERKS5_RKS7_(ptr noundef nonnull align 8 dereferenceable(28) %0, ptr noundef nonnull align 8 dereferenceable(16) %7, ptr noundef nonnull align 4 dereferenceable(12) %8)
  ret void
}

; Function Attrs: mustprogress uwtable
define linkonce_odr hidden void @_ZN7testing6ValuesIiiiEENS_8internal11ValueArray3IT_T0_T1_EES3_S4_S5_(ptr dead_on_unwind noalias writable sret(%"class.testing::internal::ValueArray3") align 4 %0, i32 noundef %1, i32 noundef %2, i32 noundef %3) #5 comdat {
  %5 = alloca ptr, align 8
  %6 = alloca i32, align 4
  %7 = alloca i32, align 4
  %8 = alloca i32, align 4
  store ptr %0, ptr %5, align 8
  store i32 %1, ptr %6, align 4
  store i32 %2, ptr %7, align 4
  store i32 %3, ptr %8, align 4
  %9 = load i32, ptr %6, align 4
  %10 = load i32, ptr %7, align 4
  %11 = load i32, ptr %8, align 4
  call void @_ZN7testing8internal11ValueArray3IiiiEC2Eiii(ptr noundef nonnull align 4 dereferenceable(12) %0, i32 noundef %9, i32 noundef %10, i32 noundef %11)
  ret void
}

; Function Attrs: mustprogress uwtable
define linkonce_odr hidden void @_ZN7testing6ValuesIPKcS2_EENS_8internal11ValueArray2IT_T0_EES5_S6_(ptr dead_on_unwind noalias writable sret(%"class.testing::internal::ValueArray2.114") align 8 %0, ptr noundef %1, ptr noundef %2) #5 comdat {
  %4 = alloca ptr, align 8
  %5 = alloca ptr, align 8
  %6 = alloca ptr, align 8
  store ptr %0, ptr %4, align 8
  store ptr %1, ptr %5, align 8
  store ptr %2, ptr %6, align 8
  %7 = load ptr, ptr %5, align 8
  %8 = load ptr, ptr %6, align 8
  call void @_ZN7testing8internal11ValueArray2IPKcS3_EC2ES3_S3_(ptr noundef nonnull align 8 dereferenceable(16) %0, ptr noundef %7, ptr noundef %8)
  ret void
}

; Function Attrs: mustprogress uwtable
define internal void @_ZN11opencv_testL51gtest_Image_KernelSize_GaborFilter2d_EvalGenerator_B5cxx11Ev(ptr dead_on_unwind noalias writable sret(%"class.testing::internal::ParamGenerator.51") align 8 %0) #5 {
  %2 = alloca ptr, align 8
  %3 = alloca %"class.testing::internal::CartesianProductHolder2", align 8
  %4 = alloca %"class.testing::internal::ValueArray2.114", align 8
  %5 = alloca %"class.testing::internal::ValueArray3", align 4
  store ptr %0, ptr %2, align 8
  call void @_ZN7testing6ValuesIPKcS2_EENS_8internal11ValueArray2IT_T0_EES5_S6_(ptr dead_on_unwind writable sret(%"class.testing::internal::ValueArray2.114") align 8 %4, ptr noundef @.str.52, ptr noundef @.str.53)
  call void @_ZN7testing6ValuesIiiiEENS_8internal11ValueArray3IT_T0_T1_EES3_S4_S5_(ptr dead_on_unwind writable sret(%"class.testing::internal::ValueArray3") align 4 %5, i32 noundef 16, i32 noundef 32, i32 noundef 64)
  call void @_ZN7testing7CombineINS_8internal11ValueArray2IPKcS4_EENS1_11ValueArray3IiiiEEEENS1_23CartesianProductHolder2IT_T0_EERKS9_RKSA_(ptr dead_on_unwind writable sret(%"class.testing::internal::CartesianProductHolder2") align 8 %3, ptr noundef nonnull align 8 dereferenceable(16) %4, ptr noundef nonnull align 4 dereferenceable(12) %5)
  call void @_ZNK7testing8internal23CartesianProductHolder2INS0_11ValueArray2IPKcS4_EENS0_11ValueArray3IiiiEEEcvNS0_14ParamGeneratorISt5tupleIJT_T0_EEEEINSt7__cxx1112basic_stringIcSt11char_traitsIcESaIcEEEiEEv(ptr dead_on_unwind writable sret(%"class.testing::internal::ParamGenerator.51") align 8 %0, ptr noundef nonnull align 8 dereferenceable(28) %3)
  ret void
}