; Function Attrs: mustprogress uwtable
define internal void @_ZN11opencv_testL51gtest_Image_KernelSize_GaborFilter2d_EvalGenerator_B5cxx11Ev(ptr dead_on_unwind noalias writable sret(%"class.testing::internal::ParamGenerator.51") align 8 %0) #3 {
  %2 = alloca %"class.testing::internal::CartesianProductHolder2", align 8
  store ptr @.str.52, ptr %2, align 8, !alias.scope !89
  %3 = getelementptr inbounds i8, ptr %2, i64 8
  store ptr @.str.53, ptr %3, align 8, !alias.scope !89
  %4 = getelementptr inbounds i8, ptr %2, i64 16
  store i32 16, ptr %4, align 8, !alias.scope !89
  %5 = getelementptr inbounds i8, ptr %2, i64 20
  store i32 32, ptr %5, align 4, !alias.scope !89
  %6 = getelementptr inbounds i8, ptr %2, i64 24
  store i32 64, ptr %6, align 8, !alias.scope !89
  call void @_ZNK7testing8internal23CartesianProductHolder2INS0_11ValueArray2IPKcS4_EENS0_11ValueArray3IiiiEEEcvNS0_14ParamGeneratorISt5tupleIJT_T0_EEEEINSt7__cxx1112basic_stringIcSt11char_traitsIcESaIcEEEiEEv(ptr dead_on_unwind writable sret(%"class.testing::internal::ParamGenerator.51") align 8 %0, ptr noundef nonnull align 8 dereferenceable(28) %2)
  ret void
}